(lp0
(lp1
I1
aI2
aI3
aI4
aI5
aI6
aI7
aI8
aI9
aI10
aI11
aI12
aI13
aI14
aI15
aI16
aI17
aI18
aI19
aI20
aI21
aI22
aI23
aI24
aI25
aI26
aI27
aI28
aI29
aI30
aI31
aI32
aI33
aI34
aI35
aI36
aI37
aI38
aI39
aI40
aI41
aI42
aI43
aI44
aI45
aI46
aI47
aI48
aI49
aI50
aI51
aI52
aI53
aI54
aI55
aI56
aI57
aI58
aI59
aI60
aI61
aI62
aI63
aI64
aI65
aI66
aI67
aI68
aI69
aI70
aI71
aI72
aI73
aI74
aa(lp2
F234.19129943847656
aF-5680.9130859375
aF-3165.887939453125
aF-2891.18896484375
aF-4155.50439453125
aF-5116.94677734375
aF-1465.853515625
aF-946.4337158203125
aF-4017.747314453125
aF-6057.61083984375
aF-5661.49609375
aF-5276.7529296875
aF-6244.81787109375
aF-5928.37744140625
aF-4685.576171875
aF-5038.4921875
aF-6363.025390625
aF-5750.04296875
aF-5373.92138671875
aF-5162.8779296875
aF-6224.72216796875
aF-5903.10791015625
aF-4956.71630859375
aF-4920.15234375
aF-4528.50634765625
aF-6269.85986328125
aF-5624.59619140625
aF-6360.8603515625
aF-6320.55908203125
aF-6534.8828125
aF-4630.6962890625
aF-6171.04345703125
aF-5791.4892578125
aF-5494.73486328125
aF-6262.72802734375
aF-5560.7109375
aF-5534.42919921875
aF-4272.38232421875
aF-5550.85107421875
aF-5113.27734375
aF-5613.193359375
aF-6482.71728515625
aF-5282.50146484375
aF-6459.2373046875
aF-4752.267578125
aF-6992.03076171875
aF-5604.60009765625
aF-6359.5751953125
aF-5477.5185546875
aF-5723.9892578125
aF-4677.8681640625
aF-5710.3310546875
aF-5379.14599609375
aF-5896.90380859375
aF-5479.37646484375
aF-5287.30126953125
aF-5728.275390625
aF-5436.93310546875
aF-5322.7890625
aF-5292.03466796875
aF-4908.91748046875
aF-5606.40234375
aF-4802.5673828125
aF-5064.53515625
aF-5586.84716796875
aF-4315.61328125
aF-4963.2041015625
aF-5424.85888671875
aF-6392.38427734375
aF-5391.03955078125
aF-3894.125732421875
aF-5963.65087890625
aF-6523.3193359375
aF-6555.1171875
aa.